Certificate:
    Data:
        Version: 3 (0x2)
        Serial Number: 1 (0x1)
        Signature Algorithm: ecdsa-with-SHA1
        Issuer: C=CC, ST=State, L=Location, O=Organization, CN=ecdsa.mitls.org/emailAddress=root@mitls.org
        Validity
            Not Before: Sep 14 20:47:24 2016 GMT
            Not After : Dec  1 20:47:24 2024 GMT
        Subject: C=CC, ST=State, O=Organization, CN=ecdsa.cert.mitls.org/emailAddress=root@mitls.org
        Subject Public Key Info:
            Public Key Algorithm: id-ecPublicKey
            EC Public Key:
                pub: 
                    04:bf:72:88:e3:b4:71:0c:7f:a9:03:9d:15:af:f5:
                    3f:66:93:45:fa:7c:d3:dd:fc:21:cb:80:d1:c8:ee:
                    81:04:37:e8:7d:dc:b3:35:5d:11:06:dd:1e:8d:14:
                    0a:9e:3f:db:1d:f7:f0:b3:f9:be:36:db:a3:d8:28:
                    c2:0f:77:92:e5
                ASN1 OID: prime256v1
        X509v3 extensions:
            X509v3 Key Usage: 
                Digital Signature, Non Repudiation, Key Encipherment
            X509v3 Basic Constraints: 
                CA:FALSE
            Netscape Comment: 
                OpenSSL Generated Certificate
    Signature Algorithm: ecdsa-with-SHA1
        30:46:02:21:00:9a:24:3d:42:dd:d7:4a:6a:58:b6:58:27:0b:
        15:a2:e2:34:a2:f2:55:6f:3b:0d:17:06:a2:c1:f3:67:59:32:
        ee:02:21:00:fa:d6:01:71:59:c1:38:90:cf:8c:0a:ad:e2:2a:
        dd:f0:2e:90:cf:e5:73:2a:5f:83:bd:4e:f5:70:f3:2e:a1:40
-----BEGIN CERTIFICATE-----
MIICKTCCAc+gAwIBAgIBATAJBgcqhkjOPQQBMIGAMQswCQYDVQQGEwJDQzEOMAwG
A1UECAwFU3RhdGUxETAPBgNVBAcMCExvY2F0aW9uMRUwEwYDVQQKDAxPcmdhbml6
YXRpb24xGDAWBgNVBAMMD2VjZHNhLm1pdGxzLm9yZzEdMBsGCSqGSIb3DQEJARYO
cm9vdEBtaXRscy5vcmcwHhcNMTYwOTE0MjA0NzI0WhcNMjQxMjAxMjA0NzI0WjBy
MQswCQYDVQQGEwJDQzEOMAwGA1UECAwFU3RhdGUxFTATBgNVBAoMDE9yZ2FuaXph
dGlvbjEdMBsGA1UEAwwUZWNkc2EuY2VydC5taXRscy5vcmcxHTAbBgkqhkiG9w0B
CQEWDnJvb3RAbWl0bHMub3JnMFkwEwYHKoZIzj0CAQYIKoZIzj0DAQcDQgAEv3KI
47RxDH+pA50Vr/U/ZpNF+nzT3fwhy4DRyO6BBDfofdyzNV0RBt0ejRQKnj/bHffw
s/m+Ntuj2CjCD3eS5aNIMEYwCwYDVR0PBAQDAgXgMAkGA1UdEwQCMAAwLAYJYIZI
AYb4QgENBB8WHU9wZW5TU0wgR2VuZXJhdGVkIENlcnRpZmljYXRlMAkGByqGSM49
BAEDSQAwRgIhAJokPULd10pqWLZYJwsVouI0ovJVbzsNFwaiwfNnWTLuAiEA+tYB
cVnBOJDPjAqt4ird8C6Qz+VzKl+DvU71cPMuoUA=
-----END CERTIFICATE-----
