Certificate:
    Data:
        Version: 3 (0x2)
        Serial Number: 1 (0x1)
        Signature Algorithm: ecdsa-with-SHA1
        Issuer: C=CC, ST=State, L=Location, O=Organization, CN=ecdsa.mitls.org/emailAddress=root@mitls.org
        Validity
            Not Before: Oct 19 09:43:03 2016 GMT
            Not After : Jan  5 09:43:03 2025 GMT
        Subject: C=CC, ST=State, O=Organization, CN=ecdsa.cert.mitls.org/emailAddress=root@mitls.org
        Subject Public Key Info:
            Public Key Algorithm: id-ecPublicKey
            EC Public Key:
                pub: 
                    04:df:1c:cb:45:54:4c:7c:c3:8a:2a:b9:9e:83:32:
                    77:50:2c:71:10:1f:7e:9e:20:95:0d:96:09:e6:bf:
                    0d:00:f9:6f:d2:f1:f4:36:02:de:5d:45:2e:87:17:
                    54:1b:b3:eb:0d:c3:54:7e:f4:1b:fa:93:07:08:19:
                    30:59:82:a0:91
                ASN1 OID: prime256v1
        X509v3 extensions:
            X509v3 Key Usage: 
                Digital Signature, Non Repudiation, Key Encipherment
            X509v3 Basic Constraints: 
                CA:FALSE
            Netscape Comment: 
                OpenSSL Generated Certificate
    Signature Algorithm: ecdsa-with-SHA1
        30:44:02:20:3c:6e:87:96:84:a5:3f:c5:9e:fc:17:67:86:76:
        8f:ba:d7:64:34:a9:04:bb:15:1e:f6:a3:5f:78:40:79:0a:09:
        02:20:27:61:5e:a7:e3:5b:4a:9d:58:74:02:8c:74:c0:a6:c8:
        78:3a:53:be:f7:b8:12:9c:ff:71:3b:f1:77:ea:c0:c4
-----BEGIN CERTIFICATE-----
MIICJzCCAc+gAwIBAgIBATAJBgcqhkjOPQQBMIGAMQswCQYDVQQGEwJDQzEOMAwG
A1UECAwFU3RhdGUxETAPBgNVBAcMCExvY2F0aW9uMRUwEwYDVQQKDAxPcmdhbml6
YXRpb24xGDAWBgNVBAMMD2VjZHNhLm1pdGxzLm9yZzEdMBsGCSqGSIb3DQEJARYO
cm9vdEBtaXRscy5vcmcwHhcNMTYxMDE5MDk0MzAzWhcNMjUwMTA1MDk0MzAzWjBy
MQswCQYDVQQGEwJDQzEOMAwGA1UECAwFU3RhdGUxFTATBgNVBAoMDE9yZ2FuaXph
dGlvbjEdMBsGA1UEAwwUZWNkc2EuY2VydC5taXRscy5vcmcxHTAbBgkqhkiG9w0B
CQEWDnJvb3RAbWl0bHMub3JnMFkwEwYHKoZIzj0CAQYIKoZIzj0DAQcDQgAE3xzL
RVRMfMOKKrmegzJ3UCxxEB9+niCVDZYJ5r8NAPlv0vH0NgLeXUUuhxdUG7PrDcNU
fvQb+pMHCBkwWYKgkaNIMEYwCwYDVR0PBAQDAgXgMAkGA1UdEwQCMAAwLAYJYIZI
AYb4QgENBB8WHU9wZW5TU0wgR2VuZXJhdGVkIENlcnRpZmljYXRlMAkGByqGSM49
BAEDRwAwRAIgPG6HloSlP8We/BdnhnaPutdkNKkEuxUe9qNfeEB5CgkCICdhXqfj
W0qdWHQCjHTApsh4OlO+97gSnP9xO/F36sDE
-----END CERTIFICATE-----
