Certificate:
    Data:
        Version: 3 (0x2)
        Serial Number: 1 (0x1)
        Signature Algorithm: sha1WithRSAEncryption
        Issuer: C=CC, ST=State, L=Location, O=Organization, CN=rsa.mitls.org/emailAddress=root@mitls.org
        Validity
            Not Before: Mar 24 22:50:25 2017 GMT
            Not After : Jun 10 22:50:25 2025 GMT
        Subject: C=CC, ST=State, O=Organization, CN=rsa.cert.mitls.org/emailAddress=root@mitls.org
        Subject Public Key Info:
            Public Key Algorithm: rsaEncryption
            RSA Public Key: (1024 bit)
                Modulus (1024 bit):
                    00:a3:c1:74:52:3f:fb:6c:92:ed:f7:a6:ee:b0:c4:
                    f3:ee:f4:c0:d8:b6:10:98:36:e7:14:4f:fb:0d:b6:
                    ee:a5:14:55:10:ae:36:c7:b0:0f:ad:8a:ba:90:ad:
                    8c:c2:87:3f:38:54:2c:c3:7e:c1:ea:8f:13:77:5d:
                    6a:a8:6c:a5:e0:fa:77:61:6e:38:11:a2:e9:21:7d:
                    e8:75:13:5b:a7:26:9a:fc:8c:57:ea:1c:85:ad:77:
                    5b:41:47:66:f4:de:9d:e4:bb:fc:df:e5:55:a9:ba:
                    b9:63:24:fb:c5:4b:74:a7:ac:08:a0:78:8b:90:d2:
                    f5:ed:ad:70:07:bb:96:c4:15
                Exponent: 65537 (0x10001)
        X509v3 extensions:
            X509v3 Key Usage: 
                Digital Signature, Non Repudiation, Key Encipherment
            X509v3 Basic Constraints: 
                CA:FALSE
            Netscape Comment: 
                OpenSSL Generated Certificate
    Signature Algorithm: sha1WithRSAEncryption
        17:bf:27:36:89:66:58:8a:99:d5:51:f8:95:df:3a:77:f4:e9:
        0f:47:b1:9a:61:8c:d6:02:b7:68:4a:51:70:a3:5f:1f:46:c6:
        3b:9d:3d:7d:73:cf:d6:90:c5:a6:12:b5:b9:87:c3:18:c0:49:
        ed:75:a8:03:84:16:80:32:42:1c:c7:de:1e:2f:b5:81:b9:d1:
        92:9b:10:20:36:85:17:0d:41:e2:bf:a9:41:b7:16:a7:9e:4f:
        44:d2:ea:af:9e:e2:5b:af:f3:b1:13:37:b2:e7:ac:ed:55:c6:
        cd:5a:fe:0b:c9:b5:c9:24:68:67:38:1b:ca:28:5e:0f:a1:30:
        d2:c0
-----BEGIN CERTIFICATE-----
MIICrDCCAhWgAwIBAgIBATANBgkqhkiG9w0BAQUFADB+MQswCQYDVQQGEwJDQzEO
MAwGA1UECAwFU3RhdGUxETAPBgNVBAcMCExvY2F0aW9uMRUwEwYDVQQKDAxPcmdh
bml6YXRpb24xFjAUBgNVBAMMDXJzYS5taXRscy5vcmcxHTAbBgkqhkiG9w0BCQEW
DnJvb3RAbWl0bHMub3JnMB4XDTE3MDMyNDIyNTAyNVoXDTI1MDYxMDIyNTAyNVow
cDELMAkGA1UEBhMCQ0MxDjAMBgNVBAgMBVN0YXRlMRUwEwYDVQQKDAxPcmdhbml6
YXRpb24xGzAZBgNVBAMMEnJzYS5jZXJ0Lm1pdGxzLm9yZzEdMBsGCSqGSIb3DQEJ
ARYOcm9vdEBtaXRscy5vcmcwgZ8wDQYJKoZIhvcNAQEBBQADgY0AMIGJAoGBAKPB
dFI/+2yS7fem7rDE8+70wNi2EJg25xRP+w227qUUVRCuNsewD62KupCtjMKHPzhU
LMN+weqPE3ddaqhspeD6d2FuOBGi6SF96HUTW6cmmvyMV+ocha13W0FHZvTeneS7
/N/lVam6uWMk+8VLdKesCKB4i5DS9e2tcAe7lsQVAgMBAAGjSDBGMAsGA1UdDwQE
AwIF4DAJBgNVHRMEAjAAMCwGCWCGSAGG+EIBDQQfFh1PcGVuU1NMIEdlbmVyYXRl
ZCBDZXJ0aWZpY2F0ZTANBgkqhkiG9w0BAQUFAAOBgQAXvyc2iWZYipnVUfiV3zp3
9OkPR7GaYYzWArdoSlFwo18fRsY7nT19c8/WkMWmErW5h8MYwEntdagDhBaAMkIc
x94eL7WBudGSmxAgNoUXDUHiv6lBtxannk9E0uqvnuJbr/OxEzey56ztVcbNWv4L
ybXJJGhnOBvKKF4PoTDSwA==
-----END CERTIFICATE-----
