Certificate:
    Data:
        Version: 3 (0x2)
        Serial Number: 1 (0x1)
        Signature Algorithm: ecdsa-with-SHA1
        Issuer: C=CC, ST=State, L=Location, O=Organization, CN=ecdsa.mitls.org/emailAddress=root@mitls.org
        Validity
            Not Before: Jul 12 12:19:07 2016 GMT
            Not After : Sep 28 12:19:07 2024 GMT
        Subject: C=CC, ST=State, O=Organization, CN=ecdsa.cert.mitls.org/emailAddress=root@mitls.org
        Subject Public Key Info:
            Public Key Algorithm: id-ecPublicKey
            EC Public Key:
                pub: 
                    04:8d:23:49:5c:23:6d:40:0e:77:1e:86:28:cf:af:
                    af:e0:e4:09:5b:85:f3:a4:98:ea:fc:10:03:96:05:
                    d5:0b:31:f2:d2:0f:e0:02:7e:a1:de:92:2a:51:de:
                    65:04:0a:1f:89:a8:c4:2e:f7:37:cb:fa:fd:50:08:
                    b2:90:d9:d9:eb
                ASN1 OID: prime256v1
        X509v3 extensions:
            X509v3 Key Usage: 
                Digital Signature, Non Repudiation, Key Encipherment
            X509v3 Basic Constraints: 
                CA:FALSE
            Netscape Comment: 
                OpenSSL Generated Certificate
    Signature Algorithm: ecdsa-with-SHA1
        30:45:02:20:7f:fa:de:99:56:f7:e8:e9:42:4d:5c:cf:a6:53:
        a8:c1:25:f4:d8:31:33:91:25:ec:3f:f3:ba:6a:0c:f6:c0:d1:
        02:21:00:f0:f1:80:f9:3a:c4:5a:25:b4:01:06:d0:f8:d5:bc:
        61:8b:f6:15:18:b4:8a:a9:ca:4a:5c:89:5a:25:e9:b3:1a
-----BEGIN CERTIFICATE-----
MIICKDCCAc+gAwIBAgIBATAJBgcqhkjOPQQBMIGAMQswCQYDVQQGEwJDQzEOMAwG
A1UECAwFU3RhdGUxETAPBgNVBAcMCExvY2F0aW9uMRUwEwYDVQQKDAxPcmdhbml6
YXRpb24xGDAWBgNVBAMMD2VjZHNhLm1pdGxzLm9yZzEdMBsGCSqGSIb3DQEJARYO
cm9vdEBtaXRscy5vcmcwHhcNMTYwNzEyMTIxOTA3WhcNMjQwOTI4MTIxOTA3WjBy
MQswCQYDVQQGEwJDQzEOMAwGA1UECAwFU3RhdGUxFTATBgNVBAoMDE9yZ2FuaXph
dGlvbjEdMBsGA1UEAwwUZWNkc2EuY2VydC5taXRscy5vcmcxHTAbBgkqhkiG9w0B
CQEWDnJvb3RAbWl0bHMub3JnMFkwEwYHKoZIzj0CAQYIKoZIzj0DAQcDQgAEjSNJ
XCNtQA53HoYoz6+v4OQJW4XzpJjq/BADlgXVCzHy0g/gAn6h3pIqUd5lBAofiajE
Lvc3y/r9UAiykNnZ66NIMEYwCwYDVR0PBAQDAgXgMAkGA1UdEwQCMAAwLAYJYIZI
AYb4QgENBB8WHU9wZW5TU0wgR2VuZXJhdGVkIENlcnRpZmljYXRlMAkGByqGSM49
BAEDSAAwRQIgf/remVb36OlCTVzPplOowSX02DEzkSXsP/O6agz2wNECIQDw8YD5
OsRaJbQBBtD41bxhi/YVGLSKqcpKXIlaJemzGg==
-----END CERTIFICATE-----
