Certificate:
    Data:
        Version: 3 (0x2)
        Serial Number: 1 (0x1)
        Signature Algorithm: ecdsa-with-SHA1
        Issuer: C=CC, ST=State, L=Location, O=Organization, CN=ecdsa.mitls.org/emailAddress=root@mitls.org
        Validity
            Not Before: Mar 24 17:01:59 2017 GMT
            Not After : Jun 10 17:01:59 2025 GMT
        Subject: C=CC, ST=State, O=Organization, CN=ecdsa.cert.mitls.org/emailAddress=root@mitls.org
        Subject Public Key Info:
            Public Key Algorithm: id-ecPublicKey
            EC Public Key:
                pub: 
                    04:0c:93:9c:97:a9:fe:8f:ca:2a:d6:76:4e:be:65:
                    6e:73:68:70:c9:7b:ae:51:9c:6d:57:47:52:64:78:
                    45:c6:0e:30:c6:f4:1f:04:c7:f3:19:2b:d0:4f:76:
                    1d:ef:21:75:24:38:67:51:a7:4e:cb:7a:a4:7b:fd:
                    88:2f:08:f0:d9
                ASN1 OID: prime256v1
        X509v3 extensions:
            X509v3 Key Usage: 
                Digital Signature, Non Repudiation, Key Encipherment
            X509v3 Basic Constraints: 
                CA:FALSE
            Netscape Comment: 
                OpenSSL Generated Certificate
    Signature Algorithm: ecdsa-with-SHA1
        30:44:02:20:5e:7d:07:ff:c6:61:0d:68:5b:0c:28:ed:eb:e2:
        e4:44:5d:ca:45:e9:c9:19:b1:90:77:f4:05:27:d0:1b:28:56:
        02:20:50:9c:56:f0:a3:6d:a3:31:f6:16:f7:f9:31:6b:51:ad:
        c7:aa:fe:e5:57:c0:b5:b0:79:1b:09:25:a7:66:03:16
-----BEGIN CERTIFICATE-----
MIICJzCCAc+gAwIBAgIBATAJBgcqhkjOPQQBMIGAMQswCQYDVQQGEwJDQzEOMAwG
A1UECAwFU3RhdGUxETAPBgNVBAcMCExvY2F0aW9uMRUwEwYDVQQKDAxPcmdhbml6
YXRpb24xGDAWBgNVBAMMD2VjZHNhLm1pdGxzLm9yZzEdMBsGCSqGSIb3DQEJARYO
cm9vdEBtaXRscy5vcmcwHhcNMTcwMzI0MTcwMTU5WhcNMjUwNjEwMTcwMTU5WjBy
MQswCQYDVQQGEwJDQzEOMAwGA1UECAwFU3RhdGUxFTATBgNVBAoMDE9yZ2FuaXph
dGlvbjEdMBsGA1UEAwwUZWNkc2EuY2VydC5taXRscy5vcmcxHTAbBgkqhkiG9w0B
CQEWDnJvb3RAbWl0bHMub3JnMFkwEwYHKoZIzj0CAQYIKoZIzj0DAQcDQgAEDJOc
l6n+j8oq1nZOvmVuc2hwyXuuUZxtV0dSZHhFxg4wxvQfBMfzGSvQT3Yd7yF1JDhn
UadOy3qke/2ILwjw2aNIMEYwCwYDVR0PBAQDAgXgMAkGA1UdEwQCMAAwLAYJYIZI
AYb4QgENBB8WHU9wZW5TU0wgR2VuZXJhdGVkIENlcnRpZmljYXRlMAkGByqGSM49
BAEDRwAwRAIgXn0H/8ZhDWhbDCjt6+LkRF3KRenJGbGQd/QFJ9AbKFYCIFCcVvCj
baMx9hb3+TFrUa3Hqv7lV8C1sHkbCSWnZgMW
-----END CERTIFICATE-----
