Certificate:
    Data:
        Version: 3 (0x2)
        Serial Number: 1 (0x1)
        Signature Algorithm: ecdsa-with-SHA1
        Issuer: C=CC, ST=State, L=Location, O=Organization, CN=ecdsa.mitls.org/emailAddress=root@mitls.org
        Validity
            Not Before: Mar 24 22:50:51 2017 GMT
            Not After : Jun 10 22:50:51 2025 GMT
        Subject: C=CC, ST=State, O=Organization, CN=ecdsa.cert.mitls.org/emailAddress=root@mitls.org
        Subject Public Key Info:
            Public Key Algorithm: id-ecPublicKey
            EC Public Key:
                pub: 
                    04:f9:0d:50:c1:92:2e:61:ab:3f:89:b2:73:46:b7:
                    b5:a1:a7:68:8e:f9:84:02:1e:7c:c9:10:55:73:c5:
                    6e:82:77:7d:8d:80:cb:78:32:cb:7b:29:95:6b:0b:
                    e8:64:6d:8a:9c:c8:15:19:a5:2f:9a:a0:15:61:83:
                    94:0f:de:d8:d1
                ASN1 OID: prime256v1
        X509v3 extensions:
            X509v3 Key Usage: 
                Digital Signature, Non Repudiation, Key Encipherment
            X509v3 Basic Constraints: 
                CA:FALSE
            Netscape Comment: 
                OpenSSL Generated Certificate
    Signature Algorithm: ecdsa-with-SHA1
        30:45:02:21:00:eb:91:81:98:af:80:35:3d:cb:30:7d:be:68:
        5e:13:2c:72:ee:ae:38:db:88:13:45:0b:61:cb:f8:3f:5e:5e:
        06:02:20:53:0a:62:52:5e:a8:7e:db:76:07:92:40:1b:2e:46:
        49:47:ad:3a:0a:66:0a:af:2f:98:05:29:d4:c5:98:7b:e0
-----BEGIN CERTIFICATE-----
MIICKDCCAc+gAwIBAgIBATAJBgcqhkjOPQQBMIGAMQswCQYDVQQGEwJDQzEOMAwG
A1UECAwFU3RhdGUxETAPBgNVBAcMCExvY2F0aW9uMRUwEwYDVQQKDAxPcmdhbml6
YXRpb24xGDAWBgNVBAMMD2VjZHNhLm1pdGxzLm9yZzEdMBsGCSqGSIb3DQEJARYO
cm9vdEBtaXRscy5vcmcwHhcNMTcwMzI0MjI1MDUxWhcNMjUwNjEwMjI1MDUxWjBy
MQswCQYDVQQGEwJDQzEOMAwGA1UECAwFU3RhdGUxFTATBgNVBAoMDE9yZ2FuaXph
dGlvbjEdMBsGA1UEAwwUZWNkc2EuY2VydC5taXRscy5vcmcxHTAbBgkqhkiG9w0B
CQEWDnJvb3RAbWl0bHMub3JnMFkwEwYHKoZIzj0CAQYIKoZIzj0DAQcDQgAE+Q1Q
wZIuYas/ibJzRre1oadojvmEAh58yRBVc8Vugnd9jYDLeDLLeymVawvoZG2KnMgV
GaUvmqAVYYOUD97Y0aNIMEYwCwYDVR0PBAQDAgXgMAkGA1UdEwQCMAAwLAYJYIZI
AYb4QgENBB8WHU9wZW5TU0wgR2VuZXJhdGVkIENlcnRpZmljYXRlMAkGByqGSM49
BAEDSAAwRQIhAOuRgZivgDU9yzB9vmheEyxy7q4424gTRQthy/g/Xl4GAiBTCmJS
Xqh+23YHkkAbLkZJR606CmYKry+YBSnUxZh74A==
-----END CERTIFICATE-----
