Certificate:
    Data:
        Version: 3 (0x2)
        Serial Number: 1 (0x1)
        Signature Algorithm: dsaWithSHA1
        Issuer: C=CC, ST=State, L=Location, O=Organization, CN=dsa.mitls.org/emailAddress=root@mitls.org
        Validity
            Not Before: Mar 24 17:01:56 2017 GMT
            Not After : Jun 10 17:01:56 2025 GMT
        Subject: C=CC, ST=State, O=Organization, CN=dsa.cert.mitls.org/emailAddress=root@mitls.org
        Subject Public Key Info:
            Public Key Algorithm: dsaEncryption
            DSA Public Key:
                pub: 
                    00:da:7e:b7:56:b1:67:21:73:da:f1:a7:b9:ec:1e:
                    c9:44:59:65:f2:db:68:bb:f1:6f:cd:f4:ad:37:e8:
                    35:89:27:95:ec:c3:a0:39:b9:4b:e1:7f:75:f5:08:
                    5d:1e:44:86:ec:c9:ca:8d:3c:bf:c7:21:8c:c7:90:
                    ba:07:02:65:c9:67:73:da:93:cb:f5:d6:57:8c:ea:
                    a2:07:f3:88:1b:25:8f:8e:fe:45:60:b2:92:f6:3d:
                    38:9a:71:51:f3:fd:81:e3:55:39:63:49:5a:12:4a:
                    56:4a:45:c3:41:c2:86:0e:cc:7d:16:3d:63:5e:57:
                    34:50:14:07:d5:ea:f8:d8:d5
                P:   
                    00:dd:6c:57:a8:68:9f:08:a5:8d:19:7e:89:04:9e:
                    c7:a0:6b:bb:f5:1b:6d:18:9b:09:91:b2:90:92:35:
                    8b:2f:1a:7a:5e:aa:0d:ca:6f:ae:9c:0a:b1:a4:f5:
                    0b:4f:85:11:17:86:c3:25:13:b9:93:b2:57:48:25:
                    f8:b5:13:b3:42:5b:40:fa:69:da:e1:c9:82:a5:42:
                    5d:08:1e:97:44:20:6d:c5:09:05:ef:66:16:1f:27:
                    7b:ca:4f:65:97:37:a4:46:78:50:08:15:e2:03:5d:
                    a2:00:95:58:16:a8:18:d6:5a:cf:b3:20:aa:11:9b:
                    82:8d:cf:fc:5d:d8:b3:c1:5d
                Q:   
                    00:8e:51:fc:ca:1a:ab:de:1a:33:61:0e:d1:a2:b1:
                    cd:b3:59:61:3e:c1
                G:   
                    3a:b4:91:62:e7:92:85:c5:80:2e:32:c3:fe:b7:d1:
                    81:6d:bb:2b:dd:b3:7e:ba:79:de:c3:36:2a:61:f6:
                    bc:8e:bb:cf:e5:0e:7d:67:80:62:60:c6:df:14:4f:
                    a7:2c:7c:79:7c:8b:35:db:26:ca:ae:43:e7:4c:47:
                    b0:9b:e3:76:eb:c9:f0:ae:a9:d6:68:04:6a:9e:16:
                    3e:3e:e9:de:b0:ab:19:bd:be:9e:c0:a1:68:84:39:
                    ba:15:35:6e:cc:30:26:9f:48:a1:29:2d:f7:9d:da:
                    60:55:67:d1:46:ff:31:ce:99:48:99:b9:c0:93:e6:
                    05:2f:13:db:b6:3b:6a:25
        X509v3 extensions:
            X509v3 Key Usage: 
                Digital Signature, Non Repudiation, Key Encipherment
            X509v3 Basic Constraints: 
                CA:FALSE
            Netscape Comment: 
                OpenSSL Generated Certificate
    Signature Algorithm: dsaWithSHA1
        30:2c:02:14:7e:f0:ab:27:93:dd:e4:4c:76:af:fe:c1:9a:be:
        75:46:13:de:78:ec:02:14:12:f3:e2:ec:e6:24:ce:2f:84:72:
        b8:4a:75:df:e0:16:fc:af:e3:11
-----BEGIN CERTIFICATE-----
MIIDajCCAyqgAwIBAgIBATAJBgcqhkjOOAQDMH4xCzAJBgNVBAYTAkNDMQ4wDAYD
VQQIDAVTdGF0ZTERMA8GA1UEBwwITG9jYXRpb24xFTATBgNVBAoMDE9yZ2FuaXph
dGlvbjEWMBQGA1UEAwwNZHNhLm1pdGxzLm9yZzEdMBsGCSqGSIb3DQEJARYOcm9v
dEBtaXRscy5vcmcwHhcNMTcwMzI0MTcwMTU2WhcNMjUwNjEwMTcwMTU2WjBwMQsw
CQYDVQQGEwJDQzEOMAwGA1UECAwFU3RhdGUxFTATBgNVBAoMDE9yZ2FuaXphdGlv
bjEbMBkGA1UEAwwSZHNhLmNlcnQubWl0bHMub3JnMR0wGwYJKoZIhvcNAQkBFg5y
b290QG1pdGxzLm9yZzCCAbcwggErBgcqhkjOOAQBMIIBHgKBgQDdbFeoaJ8IpY0Z
fokEnsega7v1G20YmwmRspCSNYsvGnpeqg3Kb66cCrGk9QtPhREXhsMlE7mTsldI
Jfi1E7NCW0D6adrhyYKlQl0IHpdEIG3FCQXvZhYfJ3vKT2WXN6RGeFAIFeIDXaIA
lVgWqBjWWs+zIKoRm4KNz/xd2LPBXQIVAI5R/Moaq94aM2EO0aKxzbNZYT7BAoGA
OrSRYueShcWALjLD/rfRgW27K92zfrp53sM2KmH2vI67z+UOfWeAYmDG3xRPpyx8
eXyLNdsmyq5D50xHsJvjduvJ8K6p1mgEap4WPj7p3rCrGb2+nsChaIQ5uhU1bsww
Jp9IoSkt953aYFVn0Ub/Mc6ZSJm5wJPmBS8T27Y7aiUDgYUAAoGBANp+t1axZyFz
2vGnueweyURZZfLbaLvxb830rTfoNYknlezDoDm5S+F/dfUIXR5EhuzJyo08v8ch
jMeQugcCZclnc9qTy/XWV4zqogfziBslj47+RWCykvY9OJpxUfP9geNVOWNJWhJK
VkpFw0HChg7MfRY9Y15XNFAUB9Xq+NjVo0gwRjALBgNVHQ8EBAMCBeAwCQYDVR0T
BAIwADAsBglghkgBhvhCAQ0EHxYdT3BlblNTTCBHZW5lcmF0ZWQgQ2VydGlmaWNh
dGUwCQYHKoZIzjgEAwMvADAsAhR+8Ksnk93kTHav/sGavnVGE9547AIUEvPi7OYk
zi+EcrhKdd/gFvyv4xE=
-----END CERTIFICATE-----
