Certificate:
    Data:
        Version: 3 (0x2)
        Serial Number: 1 (0x1)
        Signature Algorithm: dsaWithSHA1
        Issuer: C=CC, ST=State, L=Location, O=Organization, CN=dsa.mitls.org/emailAddress=root@mitls.org
        Validity
            Not Before: Sep 14 20:47:11 2016 GMT
            Not After : Dec  1 20:47:11 2024 GMT
        Subject: C=CC, ST=State, O=Organization, CN=dsa.cert.mitls.org/emailAddress=root@mitls.org
        Subject Public Key Info:
            Public Key Algorithm: dsaEncryption
            DSA Public Key:
                pub: 
                    59:b2:02:9b:af:02:1e:da:76:55:a1:cc:05:cf:6e:
                    c8:30:c2:07:37:83:24:6d:a1:86:ce:76:07:5c:51:
                    4c:2b:dc:94:a6:2e:8a:3b:4e:2b:55:3d:ec:1f:a8:
                    6f:d6:47:12:7f:71:0c:ea:7c:b1:0f:d2:27:5c:a8:
                    41:7b:4f:02:60:63:a6:b2:85:fe:8f:f7:0f:bf:58:
                    96:05:9c:22:06:f0:bb:07:4b:47:29:2a:03:1b:17:
                    ff:ac:fd:9e:95:be:6f:f3:ba:23:a8:ef:7d:5e:86:
                    e1:93:06:9d:14:2b:57:d6:43:6b:0e:6d:a1:f3:81:
                    b8:91:3b:54:9f:cd:61:d1
                P:   
                    00:8b:3b:64:ce:2e:3a:23:66:0a:d8:0e:b4:9c:a5:
                    46:82:d5:3c:0b:e7:72:94:17:97:ef:7d:b8:d1:c0:
                    2d:6d:3e:8a:1d:ee:4e:34:5a:63:66:6d:4e:83:88:
                    46:5b:f0:e4:e4:55:82:da:e2:d6:3d:a9:9b:b9:b6:
                    59:e6:67:24:5c:ab:f6:60:38:20:91:5a:4f:c7:f3:
                    4b:39:16:e7:46:e9:b7:96:cf:11:37:3e:69:b7:e5:
                    52:34:97:11:61:d3:8d:0f:9a:c8:65:c6:74:3a:1f:
                    a9:91:6e:8c:b4:f9:46:58:54:a1:a2:26:c4:41:63:
                    d5:02:20:84:fb:b3:da:ac:ed
                Q:   
                    00:ec:da:b7:b8:9e:7a:3e:56:ad:3b:3a:63:4c:6e:
                    90:ec:fd:03:44:95
                G:   
                    08:8e:b5:28:39:d5:39:95:be:e8:a1:74:28:fd:02:
                    1d:40:c7:df:0c:af:12:9a:5a:5f:0f:4f:e1:9c:f2:
                    4f:e2:32:57:6e:94:c6:84:09:e9:bf:c5:cc:7c:c9:
                    27:d8:44:1b:31:a3:35:94:27:83:5b:39:83:ff:24:
                    44:be:12:0d:d0:04:e5:4e:bb:c0:2a:a7:8e:43:21:
                    5c:05:08:0c:c6:53:99:dc:81:2d:c7:11:9c:1a:23:
                    0d:02:4b:ea:10:19:ba:03:92:b0:b0:64:50:4d:ce:
                    75:34:9b:1a:cb:52:4c:69:04:44:dc:02:9d:b7:ef:
                    d0:df:42:a7:a6:00:2d:09
        X509v3 extensions:
            X509v3 Key Usage: 
                Digital Signature, Non Repudiation, Key Encipherment
            X509v3 Basic Constraints: 
                CA:FALSE
            Netscape Comment: 
                OpenSSL Generated Certificate
    Signature Algorithm: dsaWithSHA1
        30:2d:02:15:00:be:62:21:a0:87:20:5f:b7:ff:86:47:da:2c:
        6e:28:b8:3b:92:b7:fa:02:14:10:fb:4c:44:56:b4:65:ec:e7:
        97:ca:5d:19:50:5a:37:16:e5:90:e9
-----BEGIN CERTIFICATE-----
MIIDajCCAymgAwIBAgIBATAJBgcqhkjOOAQDMH4xCzAJBgNVBAYTAkNDMQ4wDAYD
VQQIDAVTdGF0ZTERMA8GA1UEBwwITG9jYXRpb24xFTATBgNVBAoMDE9yZ2FuaXph
dGlvbjEWMBQGA1UEAwwNZHNhLm1pdGxzLm9yZzEdMBsGCSqGSIb3DQEJARYOcm9v
dEBtaXRscy5vcmcwHhcNMTYwOTE0MjA0NzExWhcNMjQxMjAxMjA0NzExWjBwMQsw
CQYDVQQGEwJDQzEOMAwGA1UECAwFU3RhdGUxFTATBgNVBAoMDE9yZ2FuaXphdGlv
bjEbMBkGA1UEAwwSZHNhLmNlcnQubWl0bHMub3JnMR0wGwYJKoZIhvcNAQkBFg5y
b290QG1pdGxzLm9yZzCCAbYwggErBgcqhkjOOAQBMIIBHgKBgQCLO2TOLjojZgrY
DrScpUaC1TwL53KUF5fvfbjRwC1tPood7k40WmNmbU6DiEZb8OTkVYLa4tY9qZu5
tlnmZyRcq/ZgOCCRWk/H80s5FudG6beWzxE3Pmm35VI0lxFh040PmshlxnQ6H6mR
boy0+UZYVKGiJsRBY9UCIIT7s9qs7QIVAOzat7ieej5WrTs6Y0xukOz9A0SVAoGA
CI61KDnVOZW+6KF0KP0CHUDH3wyvEppaXw9P4ZzyT+IyV26UxoQJ6b/FzHzJJ9hE
GzGjNZQng1s5g/8kRL4SDdAE5U67wCqnjkMhXAUIDMZTmdyBLccRnBojDQJL6hAZ
ugOSsLBkUE3OdTSbGstSTGkERNwCnbfv0N9Cp6YALQkDgYQAAoGAWbICm68CHtp2
VaHMBc9uyDDCBzeDJG2hhs52B1xRTCvclKYuijtOK1U97B+ob9ZHEn9xDOp8sQ/S
J1yoQXtPAmBjprKF/o/3D79YlgWcIgbwuwdLRykqAxsX/6z9npW+b/O6I6jvfV6G
4ZMGnRQrV9ZDaw5tofOBuJE7VJ/NYdGjSDBGMAsGA1UdDwQEAwIF4DAJBgNVHRME
AjAAMCwGCWCGSAGG+EIBDQQfFh1PcGVuU1NMIEdlbmVyYXRlZCBDZXJ0aWZpY2F0
ZTAJBgcqhkjOOAQDAzAAMC0CFQC+YiGghyBft/+GR9osbii4O5K3+gIUEPtMRFa0
Zeznl8pdGVBaNxblkOk=
-----END CERTIFICATE-----
