Certificate:
    Data:
        Version: 3 (0x2)
        Serial Number: 1 (0x1)
        Signature Algorithm: dsaWithSHA1
        Issuer: C=CC, ST=State, L=Location, O=Organization, CN=dsa.mitls.org/emailAddress=root@mitls.org
        Validity
            Not Before: Jun  2 17:42:12 2016 GMT
            Not After : Aug 19 17:42:12 2024 GMT
        Subject: C=CC, ST=State, O=Organization, CN=dsa.cert.mitls.org/emailAddress=root@mitls.org
        Subject Public Key Info:
            Public Key Algorithm: dsaEncryption
            DSA Public Key:
                pub: 
                    00:f1:d1:c1:a3:0b:af:67:0f:b6:0b:32:9a:79:0f:
                    5a:e2:c4:91:7b:0d:d8:96:e3:20:0b:9b:d0:14:d0:
                    48:e0:92:b4:74:cd:60:cf:f2:5b:d2:99:53:b7:ce:
                    46:73:43:74:a6:ed:ed:5c:43:8b:5f:e6:55:50:cc:
                    15:58:83:83:9a:cc:26:d9:31:af:58:4d:5e:01:c8:
                    e2:9e:d2:20:24:80:08:0e:ce:ca:98:2b:60:c7:b5:
                    8b:40:25:7d:23:7d:dd:3d:a3:37:92:79:06:30:4f:
                    70:d5:44:e4:9e:ec:45:10:54:f2:3b:79:f5:90:33:
                    92:68:3e:4c:df:8c:d6:66:d9
                P:   
                    00:ff:3f:06:f3:c8:47:c8:97:c5:40:da:64:fe:a9:
                    18:be:05:5c:4e:b1:b3:21:d6:19:ca:56:3d:5a:53:
                    ba:be:3f:d8:95:20:58:ac:cc:79:3d:f4:d1:54:54:
                    18:d7:98:64:a8:d3:5c:1a:74:61:ee:3f:6f:9c:9e:
                    0d:a7:42:27:20:05:4b:97:37:83:aa:43:02:92:67:
                    db:ab:97:f4:ab:9c:61:84:72:8d:93:18:f4:4e:da:
                    2d:35:e5:ea:50:54:42:c1:51:d8:19:35:cd:8a:5b:
                    09:dd:d5:61:ab:4c:67:ea:b3:75:d1:e7:79:fd:9e:
                    d2:6f:a7:45:87:f4:a9:80:61
                Q:   
                    00:b0:ec:d2:4f:ec:0d:92:d9:97:c7:fb:e6:f1:fc:
                    16:ab:e6:d4:c3:47
                G:   
                    00:88:9c:b1:76:52:fd:0d:88:04:d9:2f:c2:53:67:
                    01:e1:b3:f5:35:04:ab:c6:c6:07:d6:0c:7f:b3:15:
                    38:00:af:01:86:56:29:47:e0:0b:86:d3:41:53:a2:
                    64:83:77:ae:bc:75:57:f0:a5:ad:03:d6:1f:1a:12:
                    ef:8f:76:1a:3a:23:54:1f:74:6c:73:fc:13:e4:47:
                    8b:83:4f:ba:60:93:a9:03:83:c0:8c:80:6c:51:76:
                    15:ae:b5:79:94:8a:61:3e:8b:fb:e7:99:7b:37:25:
                    97:21:78:4c:3d:0b:c1:ef:b3:0f:c0:0c:27:8c:f9:
                    ea:6e:a1:14:46:bf:7d:d6:c0
        X509v3 extensions:
            X509v3 Key Usage: 
                Digital Signature, Non Repudiation, Key Encipherment
            X509v3 Basic Constraints: 
                CA:FALSE
            Netscape Comment: 
                OpenSSL Generated Certificate
    Signature Algorithm: dsaWithSHA1
        30:2c:02:14:55:b1:b1:e7:49:e7:51:d2:7e:26:64:bc:11:51:
        d1:73:1f:fe:8f:11:02:14:62:32:df:29:2c:9b:c9:73:65:f6:
        c6:05:d1:7b:8d:95:77:86:2c:fa
-----BEGIN CERTIFICATE-----
MIIDazCCAyugAwIBAgIBATAJBgcqhkjOOAQDMH4xCzAJBgNVBAYTAkNDMQ4wDAYD
VQQIDAVTdGF0ZTERMA8GA1UEBwwITG9jYXRpb24xFTATBgNVBAoMDE9yZ2FuaXph
dGlvbjEWMBQGA1UEAwwNZHNhLm1pdGxzLm9yZzEdMBsGCSqGSIb3DQEJARYOcm9v
dEBtaXRscy5vcmcwHhcNMTYwNjAyMTc0MjEyWhcNMjQwODE5MTc0MjEyWjBwMQsw
CQYDVQQGEwJDQzEOMAwGA1UECAwFU3RhdGUxFTATBgNVBAoMDE9yZ2FuaXphdGlv
bjEbMBkGA1UEAwwSZHNhLmNlcnQubWl0bHMub3JnMR0wGwYJKoZIhvcNAQkBFg5y
b290QG1pdGxzLm9yZzCCAbgwggEsBgcqhkjOOAQBMIIBHwKBgQD/PwbzyEfIl8VA
2mT+qRi+BVxOsbMh1hnKVj1aU7q+P9iVIFiszHk99NFUVBjXmGSo01wadGHuP2+c
ng2nQicgBUuXN4OqQwKSZ9url/SrnGGEco2TGPRO2i015epQVELBUdgZNc2KWwnd
1WGrTGfqs3XR53n9ntJvp0WH9KmAYQIVALDs0k/sDZLZl8f75vH8Fqvm1MNHAoGB
AIicsXZS/Q2IBNkvwlNnAeGz9TUEq8bGB9YMf7MVOACvAYZWKUfgC4bTQVOiZIN3
rrx1V/ClrQPWHxoS7492GjojVB90bHP8E+RHi4NPumCTqQODwIyAbFF2Fa61eZSK
YT6L++eZezcllyF4TD0Lwe+zD8AMJ4z56m6hFEa/fdbAA4GFAAKBgQDx0cGjC69n
D7YLMpp5D1rixJF7DdiW4yALm9AU0EjgkrR0zWDP8lvSmVO3zkZzQ3Sm7e1cQ4tf
5lVQzBVYg4OazCbZMa9YTV4ByOKe0iAkgAgOzsqYK2DHtYtAJX0jfd09ozeSeQYw
T3DVROSe7EUQVPI7efWQM5JoPkzfjNZm2aNIMEYwCwYDVR0PBAQDAgXgMAkGA1Ud
EwQCMAAwLAYJYIZIAYb4QgENBB8WHU9wZW5TU0wgR2VuZXJhdGVkIENlcnRpZmlj
YXRlMAkGByqGSM44BAMDLwAwLAIUVbGx50nnUdJ+JmS8EVHRcx/+jxECFGIy3yks
m8lzZfbGBdF7jZV3hiz6
-----END CERTIFICATE-----
