Certificate:
    Data:
        Version: 3 (0x2)
        Serial Number: 1 (0x1)
        Signature Algorithm: dsaWithSHA1
        Issuer: C=CC, ST=State, L=Location, O=Organization, CN=dsa.mitls.org/emailAddress=root@mitls.org
        Validity
            Not Before: Jul 12 12:18:54 2016 GMT
            Not After : Sep 28 12:18:54 2024 GMT
        Subject: C=CC, ST=State, O=Organization, CN=dsa.cert.mitls.org/emailAddress=root@mitls.org
        Subject Public Key Info:
            Public Key Algorithm: dsaEncryption
            DSA Public Key:
                pub: 
                    00:d2:9c:10:bb:5a:5b:e9:c3:84:50:21:a9:37:99:
                    86:93:39:41:62:f6:2b:d2:c0:30:17:f6:d7:d0:fa:
                    7d:50:0b:dd:26:a7:04:b1:d8:7b:38:05:1f:41:46:
                    f1:54:c7:a9:10:f0:6e:a1:dd:31:b7:d7:45:2f:30:
                    ec:0f:f2:43:32:79:ef:be:36:0d:f3:ed:8d:94:92:
                    d6:e2:5f:71:a2:3a:52:75:ae:4d:9f:5a:db:b7:53:
                    cb:21:77:57:d3:80:b2:ab:23:6a:60:f7:df:48:88:
                    17:68:4c:1f:b2:79:12:19:6f:89:bf:18:a8:6a:9c:
                    e6:89:61:62:73:53:8d:fd:03
                P:   
                    00:f3:8e:4b:f2:7f:b7:58:06:8b:a0:99:9d:08:b8:
                    ef:df:a9:c7:f3:67:28:bb:35:92:79:38:62:cb:91:
                    d4:0c:04:4a:51:6d:d3:a2:27:5d:81:f1:f6:a5:4a:
                    ac:6b:50:f4:1d:87:75:c9:f3:28:77:8d:e0:db:97:
                    c9:f2:79:8b:b6:8f:2a:b4:6f:4c:38:18:0f:f3:23:
                    db:18:9c:29:72:50:f9:f5:0e:54:1c:99:64:44:2f:
                    08:d4:48:4e:0f:12:05:b8:3f:9a:0a:b6:75:1a:f7:
                    f3:11:7f:83:85:7e:be:e3:6f:20:f9:3b:c7:07:85:
                    f7:40:15:34:a0:98:e6:f5:17
                Q:   
                    00:fe:95:d9:5f:49:eb:ef:c3:b8:01:27:43:10:e6:
                    1c:9e:f7:fd:09:39
                G:   
                    24:86:0e:77:98:f3:8c:99:1f:9f:dd:b5:cd:d2:56:
                    c5:a4:e8:60:50:d5:15:f6:f4:9e:5d:80:b2:b3:01:
                    df:97:00:b7:c5:65:b6:a5:39:cc:76:7b:dc:27:2d:
                    8e:68:17:15:66:d8:47:08:36:34:ba:a2:f6:40:ff:
                    f0:81:b5:c3:c7:ad:07:a7:73:44:79:2b:f7:d5:51:
                    11:3f:05:66:cd:c8:e3:a9:17:2f:8f:a5:2e:f9:0c:
                    54:2c:32:a7:79:ae:76:52:db:f3:12:25:b0:5a:12:
                    e3:0f:43:89:b4:11:2c:8b:53:0e:97:fa:00:63:71:
                    7e:23:41:09:3c:5a:e9:cb
        X509v3 extensions:
            X509v3 Key Usage: 
                Digital Signature, Non Repudiation, Key Encipherment
            X509v3 Basic Constraints: 
                CA:FALSE
            Netscape Comment: 
                OpenSSL Generated Certificate
    Signature Algorithm: dsaWithSHA1
        30:2e:02:15:00:d5:a8:fc:5e:b1:91:55:80:96:05:02:1e:6c:
        be:ee:85:a7:e6:e5:a9:02:15:00:c7:4b:b1:df:99:d3:06:c3:
        18:f8:3f:3c:8e:a2:b6:96:dc:1b:c1:c0
-----BEGIN CERTIFICATE-----
MIIDbDCCAyqgAwIBAgIBATAJBgcqhkjOOAQDMH4xCzAJBgNVBAYTAkNDMQ4wDAYD
VQQIDAVTdGF0ZTERMA8GA1UEBwwITG9jYXRpb24xFTATBgNVBAoMDE9yZ2FuaXph
dGlvbjEWMBQGA1UEAwwNZHNhLm1pdGxzLm9yZzEdMBsGCSqGSIb3DQEJARYOcm9v
dEBtaXRscy5vcmcwHhcNMTYwNzEyMTIxODU0WhcNMjQwOTI4MTIxODU0WjBwMQsw
CQYDVQQGEwJDQzEOMAwGA1UECAwFU3RhdGUxFTATBgNVBAoMDE9yZ2FuaXphdGlv
bjEbMBkGA1UEAwwSZHNhLmNlcnQubWl0bHMub3JnMR0wGwYJKoZIhvcNAQkBFg5y
b290QG1pdGxzLm9yZzCCAbcwggErBgcqhkjOOAQBMIIBHgKBgQDzjkvyf7dYBoug
mZ0IuO/fqcfzZyi7NZJ5OGLLkdQMBEpRbdOiJ12B8falSqxrUPQdh3XJ8yh3jeDb
l8nyeYu2jyq0b0w4GA/zI9sYnClyUPn1DlQcmWRELwjUSE4PEgW4P5oKtnUa9/MR
f4OFfr7jbyD5O8cHhfdAFTSgmOb1FwIVAP6V2V9J6+/DuAEnQxDmHJ73/Qk5AoGA
JIYOd5jzjJkfn921zdJWxaToYFDVFfb0nl2AsrMB35cAt8VltqU5zHZ73CctjmgX
FWbYRwg2NLqi9kD/8IG1w8etB6dzRHkr99VRET8FZs3I46kXL4+lLvkMVCwyp3mu
dlLb8xIlsFoS4w9DibQRLItTDpf6AGNxfiNBCTxa6csDgYUAAoGBANKcELtaW+nD
hFAhqTeZhpM5QWL2K9LAMBf219D6fVAL3SanBLHYezgFH0FG8VTHqRDwbqHdMbfX
RS8w7A/yQzJ57742DfPtjZSS1uJfcaI6UnWuTZ9a27dTyyF3V9OAsqsjamD330iI
F2hMH7J5Ehlvib8YqGqc5olhYnNTjf0Do0gwRjALBgNVHQ8EBAMCBeAwCQYDVR0T
BAIwADAsBglghkgBhvhCAQ0EHxYdT3BlblNTTCBHZW5lcmF0ZWQgQ2VydGlmaWNh
dGUwCQYHKoZIzjgEAwMxADAuAhUA1aj8XrGRVYCWBQIebL7uhafm5akCFQDHS7Hf
mdMGwxj4PzyOoraW3BvBwA==
-----END CERTIFICATE-----
