Certificate:
    Data:
        Version: 3 (0x2)
        Serial Number: 1 (0x1)
        Signature Algorithm: dsaWithSHA1
        Issuer: C=CC, ST=State, L=Location, O=Organization, CN=dsa.mitls.org/emailAddress=root@mitls.org
        Validity
            Not Before: Oct 19 09:42:49 2016 GMT
            Not After : Jan  5 09:42:49 2025 GMT
        Subject: C=CC, ST=State, O=Organization, CN=dsa.cert.mitls.org/emailAddress=root@mitls.org
        Subject Public Key Info:
            Public Key Algorithm: dsaEncryption
            DSA Public Key:
                pub: 
                    5d:fb:01:09:a4:9b:11:71:14:7b:bd:a9:0f:d3:dc:
                    67:17:18:fb:f1:64:b0:34:50:30:0d:df:29:4a:ea:
                    1d:f9:15:31:b7:4e:7c:8e:52:5e:74:f8:01:47:1d:
                    2d:ee:e9:77:d8:75:d1:ef:22:26:ba:7c:4b:40:cf:
                    73:52:fe:33:18:77:56:26:87:e6:69:05:4d:69:d5:
                    8e:a5:c1:f6:8b:7b:cd:3c:92:a2:bd:aa:dc:3d:8a:
                    4f:08:85:dc:c7:d0:d4:5a:e2:9f:8c:2d:1b:a4:9c:
                    6a:a6:a7:f0:17:6f:c7:0c:05:1a:36:9f:77:f4:0b:
                    8a:de:f3:01:56:82:6f:1a
                P:   
                    00:b7:84:33:7b:55:16:15:0d:2e:67:3b:8d:6d:ef:
                    87:52:fc:4f:8a:07:10:1b:8d:7b:5b:af:a8:ba:3c:
                    f4:98:9c:da:ea:cf:6e:b2:54:38:d1:5e:1b:ed:03:
                    62:5a:81:60:2d:da:8c:ea:1a:9f:4c:e4:15:69:5d:
                    ec:4f:77:45:7c:6a:d2:13:32:f1:7e:b8:ef:c0:d6:
                    b3:d5:bd:d0:2f:1c:b4:22:aa:e6:cb:55:16:7a:6b:
                    19:b4:33:59:41:39:04:73:3c:05:86:72:73:71:57:
                    73:0f:5f:06:32:a1:13:e8:56:c6:b6:75:9b:c8:61:
                    6c:dc:c2:67:02:5e:89:1b:4b
                Q:   
                    00:de:f4:0a:f3:c3:3d:8f:54:b3:6c:ec:8d:45:e5:
                    3a:3b:2b:58:93:25
                G:   
                    56:c7:2b:9b:3b:88:44:96:5c:0e:d2:59:03:99:31:
                    cc:5d:62:3e:64:d7:0d:12:e0:76:ba:3a:91:c3:b4:
                    d2:0a:6c:42:8f:d9:98:45:e2:bd:2f:69:fd:cc:2d:
                    a4:a3:7c:ed:5f:06:47:8e:17:e8:c3:12:02:66:2b:
                    8a:fb:e7:0c:e2:05:40:d6:01:40:d5:30:77:b2:44:
                    4d:0f:c2:66:49:7b:03:07:51:f5:e4:eb:39:15:67:
                    71:45:99:1a:24:ea:f0:45:e0:a6:99:26:80:79:4c:
                    53:9e:cc:22:2a:9e:b4:5c:e5:1f:4d:29:48:6f:e7:
                    6c:8d:af:a7:e5:5b:93:35
        X509v3 extensions:
            X509v3 Key Usage: 
                Digital Signature, Non Repudiation, Key Encipherment
            X509v3 Basic Constraints: 
                CA:FALSE
            Netscape Comment: 
                OpenSSL Generated Certificate
    Signature Algorithm: dsaWithSHA1
        30:2d:02:15:00:b2:74:a9:17:91:d5:a3:c4:7a:01:41:d6:3a:
        c9:46:44:a2:86:53:4f:02:14:68:c0:59:3d:67:7c:21:b6:49:
        de:6e:71:e3:81:53:ca:a1:39:69:dd
-----BEGIN CERTIFICATE-----
MIIDajCCAymgAwIBAgIBATAJBgcqhkjOOAQDMH4xCzAJBgNVBAYTAkNDMQ4wDAYD
VQQIDAVTdGF0ZTERMA8GA1UEBwwITG9jYXRpb24xFTATBgNVBAoMDE9yZ2FuaXph
dGlvbjEWMBQGA1UEAwwNZHNhLm1pdGxzLm9yZzEdMBsGCSqGSIb3DQEJARYOcm9v
dEBtaXRscy5vcmcwHhcNMTYxMDE5MDk0MjQ5WhcNMjUwMTA1MDk0MjQ5WjBwMQsw
CQYDVQQGEwJDQzEOMAwGA1UECAwFU3RhdGUxFTATBgNVBAoMDE9yZ2FuaXphdGlv
bjEbMBkGA1UEAwwSZHNhLmNlcnQubWl0bHMub3JnMR0wGwYJKoZIhvcNAQkBFg5y
b290QG1pdGxzLm9yZzCCAbYwggErBgcqhkjOOAQBMIIBHgKBgQC3hDN7VRYVDS5n
O41t74dS/E+KBxAbjXtbr6i6PPSYnNrqz26yVDjRXhvtA2JagWAt2ozqGp9M5BVp
XexPd0V8atITMvF+uO/A1rPVvdAvHLQiqubLVRZ6axm0M1lBOQRzPAWGcnNxV3MP
XwYyoRPoVsa2dZvIYWzcwmcCXokbSwIVAN70CvPDPY9Us2zsjUXlOjsrWJMlAoGA
VscrmzuIRJZcDtJZA5kxzF1iPmTXDRLgdro6kcO00gpsQo/ZmEXivS9p/cwtpKN8
7V8GR44X6MMSAmYrivvnDOIFQNYBQNUwd7JETQ/CZkl7AwdR9eTrORVncUWZGiTq
8EXgppkmgHlMU57MIiqetFzlH00pSG/nbI2vp+VbkzUDgYQAAoGAXfsBCaSbEXEU
e72pD9PcZxcY+/FksDRQMA3fKUrqHfkVMbdOfI5SXnT4AUcdLe7pd9h10e8iJrp8
S0DPc1L+Mxh3ViaH5mkFTWnVjqXB9ot7zTySor2q3D2KTwiF3MfQ1Frin4wtG6Sc
aqan8BdvxwwFGjafd/QLit7zAVaCbxqjSDBGMAsGA1UdDwQEAwIF4DAJBgNVHRME
AjAAMCwGCWCGSAGG+EIBDQQfFh1PcGVuU1NMIEdlbmVyYXRlZCBDZXJ0aWZpY2F0
ZTAJBgcqhkjOOAQDAzAAMC0CFQCydKkXkdWjxHoBQdY6yUZEooZTTwIUaMBZPWd8
IbZJ3m5x44FTyqE5ad0=
-----END CERTIFICATE-----
