Certificate:
    Data:
        Version: 3 (0x2)
        Serial Number: 1 (0x1)
        Signature Algorithm: sha1WithRSAEncryption
        Issuer: C=CC, ST=State, L=Location, O=Organization, CN=rsa.mitls.org/emailAddress=root@mitls.org
        Validity
            Not Before: Mar 24 17:01:45 2017 GMT
            Not After : Jun 10 17:01:45 2025 GMT
        Subject: C=CC, ST=State, O=Organization, CN=rsa.cert.mitls.org/emailAddress=root@mitls.org
        Subject Public Key Info:
            Public Key Algorithm: rsaEncryption
            RSA Public Key: (1024 bit)
                Modulus (1024 bit):
                    00:c5:b2:f5:69:23:85:bd:17:a2:05:5c:4e:1a:a4:
                    d7:cc:ac:cb:72:8e:67:8f:e0:82:9a:01:08:26:77:
                    cf:b1:67:78:37:79:96:db:9c:b1:21:7d:5a:3a:81:
                    8c:f9:ea:e8:18:47:cd:0a:a3:1c:9f:9f:48:87:af:
                    b4:80:4e:06:fb:c5:4d:c3:c5:b5:55:62:a7:81:aa:
                    95:fb:f7:91:9d:8b:d3:02:da:ed:27:bd:9f:3a:29:
                    ff:82:a2:59:e8:cc:a7:c2:8b:80:3a:5d:ec:c2:8a:
                    ad:74:4c:4d:df:fe:d3:cd:a1:e0:9f:c8:a3:d5:7d:
                    f5:66:40:b7:4d:54:55:86:c9
                Exponent: 65537 (0x10001)
        X509v3 extensions:
            X509v3 Key Usage: 
                Digital Signature, Non Repudiation, Key Encipherment
            X509v3 Basic Constraints: 
                CA:FALSE
            Netscape Comment: 
                OpenSSL Generated Certificate
    Signature Algorithm: sha1WithRSAEncryption
        bd:66:7e:d3:8d:11:c7:1d:c9:6c:cc:c5:2c:4a:25:53:c0:70:
        e3:9d:3f:f0:fe:7d:57:31:0f:ca:9a:c4:e6:2e:91:e3:4b:e7:
        70:44:60:d3:cf:6c:d3:44:c0:fb:2b:b2:98:8d:92:78:1f:3a:
        64:6e:32:30:1e:9d:e0:7c:4e:4c:07:d5:34:36:8b:7e:9c:93:
        b3:8b:d3:1a:7a:09:26:8c:46:57:a4:c8:72:35:26:44:d3:ba:
        39:3e:28:77:1a:8d:7e:a4:a8:71:82:d6:59:33:ae:a7:b5:64:
        27:9f:c5:50:b3:db:aa:b9:6f:21:62:0b:67:00:09:0e:09:8c:
        99:4f
-----BEGIN CERTIFICATE-----
MIICrDCCAhWgAwIBAgIBATANBgkqhkiG9w0BAQUFADB+MQswCQYDVQQGEwJDQzEO
MAwGA1UECAwFU3RhdGUxETAPBgNVBAcMCExvY2F0aW9uMRUwEwYDVQQKDAxPcmdh
bml6YXRpb24xFjAUBgNVBAMMDXJzYS5taXRscy5vcmcxHTAbBgkqhkiG9w0BCQEW
DnJvb3RAbWl0bHMub3JnMB4XDTE3MDMyNDE3MDE0NVoXDTI1MDYxMDE3MDE0NVow
cDELMAkGA1UEBhMCQ0MxDjAMBgNVBAgMBVN0YXRlMRUwEwYDVQQKDAxPcmdhbml6
YXRpb24xGzAZBgNVBAMMEnJzYS5jZXJ0Lm1pdGxzLm9yZzEdMBsGCSqGSIb3DQEJ
ARYOcm9vdEBtaXRscy5vcmcwgZ8wDQYJKoZIhvcNAQEBBQADgY0AMIGJAoGBAMWy
9Wkjhb0XogVcThqk18ysy3KOZ4/ggpoBCCZ3z7FneDd5ltucsSF9WjqBjPnq6BhH
zQqjHJ+fSIevtIBOBvvFTcPFtVVip4Gqlfv3kZ2L0wLa7Se9nzop/4KiWejMp8KL
gDpd7MKKrXRMTd/+082h4J/Io9V99WZAt01UVYbJAgMBAAGjSDBGMAsGA1UdDwQE
AwIF4DAJBgNVHRMEAjAAMCwGCWCGSAGG+EIBDQQfFh1PcGVuU1NMIEdlbmVyYXRl
ZCBDZXJ0aWZpY2F0ZTANBgkqhkiG9w0BAQUFAAOBgQC9Zn7TjRHHHclszMUsSiVT
wHDjnT/w/n1XMQ/KmsTmLpHjS+dwRGDTz2zTRMD7K7KYjZJ4HzpkbjIwHp3gfE5M
B9U0Not+nJOzi9MaegkmjEZXpMhyNSZE07o5Pih3Go1+pKhxgtZZM66ntWQnn8VQ
s9uquW8hYgtnAAkOCYyZTw==
-----END CERTIFICATE-----
