Certificate:
    Data:
        Version: 3 (0x2)
        Serial Number: 1 (0x1)
        Signature Algorithm: sha1WithRSAEncryption
        Issuer: C=CC, ST=State, L=Location, O=Organization, CN=rsa.mitls.org/emailAddress=root@mitls.org
        Validity
            Not Before: Jul 12 12:18:47 2016 GMT
            Not After : Sep 28 12:18:47 2024 GMT
        Subject: C=CC, ST=State, O=Organization, CN=rsa.cert.mitls.org/emailAddress=root@mitls.org
        Subject Public Key Info:
            Public Key Algorithm: rsaEncryption
            RSA Public Key: (1024 bit)
                Modulus (1024 bit):
                    00:f3:81:ee:23:b9:d3:82:7a:3e:cf:58:02:a7:e9:
                    a6:20:22:89:55:8b:25:70:0b:80:17:8b:ca:31:36:
                    ff:15:03:eb:6f:0f:06:9f:2b:10:cd:2b:26:0c:53:
                    77:ac:9d:f3:90:4c:bc:b9:99:e2:05:7b:21:6e:14:
                    c9:e4:b4:4d:ce:97:f5:0a:16:61:c8:55:2c:67:47:
                    0c:29:20:de:ba:4e:65:ca:5d:8f:97:30:0d:7f:00:
                    f8:73:bc:3d:9b:0f:56:ca:39:b2:16:7e:d7:16:05:
                    00:92:fe:f0:12:1e:8c:4a:e2:b8:b5:12:3d:bc:21:
                    0d:8d:15:6d:1c:e8:b5:4b:19
                Exponent: 65537 (0x10001)
        X509v3 extensions:
            X509v3 Key Usage: 
                Digital Signature, Non Repudiation, Key Encipherment
            X509v3 Basic Constraints: 
                CA:FALSE
            Netscape Comment: 
                OpenSSL Generated Certificate
    Signature Algorithm: sha1WithRSAEncryption
        a4:40:83:79:0e:3b:af:df:54:f9:09:59:f5:b2:4c:29:3a:60:
        56:80:b6:99:e0:b7:87:14:b3:c9:86:18:22:f6:3e:93:83:1a:
        2a:9d:e3:0c:4b:b3:e8:50:2e:2d:23:84:e8:79:7c:3d:c7:3d:
        8e:c1:db:4f:fe:79:18:fa:dc:6f:a9:17:7c:00:f3:67:d4:9b:
        72:ca:e1:58:79:61:ff:80:13:be:50:48:eb:a3:67:2a:8e:d7:
        3a:78:88:3e:41:d9:63:b8:e6:0d:0c:41:e5:dd:24:de:f2:c9:
        e5:73:72:42:f3:9c:ba:06:ad:11:6f:7f:20:f5:16:d9:34:50:
        3d:c5
-----BEGIN CERTIFICATE-----
MIICrDCCAhWgAwIBAgIBATANBgkqhkiG9w0BAQUFADB+MQswCQYDVQQGEwJDQzEO
MAwGA1UECAwFU3RhdGUxETAPBgNVBAcMCExvY2F0aW9uMRUwEwYDVQQKDAxPcmdh
bml6YXRpb24xFjAUBgNVBAMMDXJzYS5taXRscy5vcmcxHTAbBgkqhkiG9w0BCQEW
DnJvb3RAbWl0bHMub3JnMB4XDTE2MDcxMjEyMTg0N1oXDTI0MDkyODEyMTg0N1ow
cDELMAkGA1UEBhMCQ0MxDjAMBgNVBAgMBVN0YXRlMRUwEwYDVQQKDAxPcmdhbml6
YXRpb24xGzAZBgNVBAMMEnJzYS5jZXJ0Lm1pdGxzLm9yZzEdMBsGCSqGSIb3DQEJ
ARYOcm9vdEBtaXRscy5vcmcwgZ8wDQYJKoZIhvcNAQEBBQADgY0AMIGJAoGBAPOB
7iO504J6Ps9YAqfppiAiiVWLJXALgBeLyjE2/xUD628PBp8rEM0rJgxTd6yd85BM
vLmZ4gV7IW4UyeS0Tc6X9QoWYchVLGdHDCkg3rpOZcpdj5cwDX8A+HO8PZsPVso5
shZ+1xYFAJL+8BIejEriuLUSPbwhDY0VbRzotUsZAgMBAAGjSDBGMAsGA1UdDwQE
AwIF4DAJBgNVHRMEAjAAMCwGCWCGSAGG+EIBDQQfFh1PcGVuU1NMIEdlbmVyYXRl
ZCBDZXJ0aWZpY2F0ZTANBgkqhkiG9w0BAQUFAAOBgQCkQIN5Djuv31T5CVn1skwp
OmBWgLaZ4LeHFLPJhhgi9j6TgxoqneMMS7PoUC4tI4ToeXw9xz2OwdtP/nkY+txv
qRd8APNn1JtyyuFYeWH/gBO+UEjro2cqjtc6eIg+QdljuOYNDEHl3STe8snlc3JC
85y6Bq0Rb38g9RbZNFA9xQ==
-----END CERTIFICATE-----
