Certificate:
    Data:
        Version: 3 (0x2)
        Serial Number: 1 (0x1)
        Signature Algorithm: sha1WithRSAEncryption
        Issuer: C=CC, ST=State, L=Location, O=Organization, CN=rsa.mitls.org/emailAddress=root@mitls.org
        Validity
            Not Before: Sep 14 20:47:09 2016 GMT
            Not After : Dec  1 20:47:09 2024 GMT
        Subject: C=CC, ST=State, O=Organization, CN=rsa.cert.mitls.org/emailAddress=root@mitls.org
        Subject Public Key Info:
            Public Key Algorithm: rsaEncryption
            RSA Public Key: (1024 bit)
                Modulus (1024 bit):
                    00:be:76:06:4b:8b:d7:c1:21:33:22:68:45:b1:07:
                    21:9f:a0:f6:7f:4f:f4:20:2d:86:ac:2b:ef:2f:56:
                    49:4d:83:95:6d:fc:ba:3c:2d:a2:4c:ee:e4:57:79:
                    74:d0:b9:fa:1c:8b:14:dd:8b:9c:8e:09:fd:e5:13:
                    ca:cc:f3:4c:8c:b6:ac:df:c3:73:a8:96:30:dc:fc:
                    63:a2:30:08:46:39:c3:c4:60:38:2c:ae:3d:6a:e6:
                    6f:8f:cf:3b:86:be:a3:6f:60:be:e5:ad:06:4e:17:
                    1c:ea:4d:f7:2e:b5:75:66:44:20:74:90:6e:10:c0:
                    6b:80:63:cb:4e:0f:a9:43:7d
                Exponent: 65537 (0x10001)
        X509v3 extensions:
            X509v3 Key Usage: 
                Digital Signature, Non Repudiation, Key Encipherment
            X509v3 Basic Constraints: 
                CA:FALSE
            Netscape Comment: 
                OpenSSL Generated Certificate
    Signature Algorithm: sha1WithRSAEncryption
        9f:5e:a2:1e:a6:27:81:95:b7:9b:c2:f4:25:a3:0a:0a:02:d4:
        b5:7e:63:05:e8:64:c8:c5:6c:70:6e:43:4f:9e:0f:45:65:b5:
        5e:31:ec:c8:0c:e7:ba:26:8d:43:bb:e3:6a:d5:d0:7e:45:e3:
        6b:84:a5:a8:2f:ad:ce:da:cc:fe:c5:55:a8:be:4d:25:74:e6:
        27:97:06:48:98:87:a6:40:f2:41:2a:56:44:42:6d:0e:4a:a5:
        d7:6c:ad:ae:44:5f:77:a2:3e:07:6d:32:7f:9e:17:cf:ca:5f:
        a2:91:6e:35:ef:e7:cf:f6:04:71:b2:b6:e0:74:29:fe:45:de:
        0c:72
-----BEGIN CERTIFICATE-----
MIICrDCCAhWgAwIBAgIBATANBgkqhkiG9w0BAQUFADB+MQswCQYDVQQGEwJDQzEO
MAwGA1UECAwFU3RhdGUxETAPBgNVBAcMCExvY2F0aW9uMRUwEwYDVQQKDAxPcmdh
bml6YXRpb24xFjAUBgNVBAMMDXJzYS5taXRscy5vcmcxHTAbBgkqhkiG9w0BCQEW
DnJvb3RAbWl0bHMub3JnMB4XDTE2MDkxNDIwNDcwOVoXDTI0MTIwMTIwNDcwOVow
cDELMAkGA1UEBhMCQ0MxDjAMBgNVBAgMBVN0YXRlMRUwEwYDVQQKDAxPcmdhbml6
YXRpb24xGzAZBgNVBAMMEnJzYS5jZXJ0Lm1pdGxzLm9yZzEdMBsGCSqGSIb3DQEJ
ARYOcm9vdEBtaXRscy5vcmcwgZ8wDQYJKoZIhvcNAQEBBQADgY0AMIGJAoGBAL52
BkuL18EhMyJoRbEHIZ+g9n9P9CAthqwr7y9WSU2DlW38ujwtokzu5Fd5dNC5+hyL
FN2LnI4J/eUTyszzTIy2rN/Dc6iWMNz8Y6IwCEY5w8RgOCyuPWrmb4/PO4a+o29g
vuWtBk4XHOpN9y61dWZEIHSQbhDAa4Bjy04PqUN9AgMBAAGjSDBGMAsGA1UdDwQE
AwIF4DAJBgNVHRMEAjAAMCwGCWCGSAGG+EIBDQQfFh1PcGVuU1NMIEdlbmVyYXRl
ZCBDZXJ0aWZpY2F0ZTANBgkqhkiG9w0BAQUFAAOBgQCfXqIepieBlbebwvQlowoK
AtS1fmMF6GTIxWxwbkNPng9FZbVeMezIDOe6Jo1Du+Nq1dB+ReNrhKWoL63O2sz+
xVWovk0ldOYnlwZImIemQPJBKlZEQm0OSqXXbK2uRF93oj4HbTJ/nhfPyl+ikW41
7+fP9gRxsrbgdCn+Rd4Mcg==
-----END CERTIFICATE-----
