Certificate:
    Data:
        Version: 3 (0x2)
        Serial Number: 1 (0x1)
        Signature Algorithm: sha1WithRSAEncryption
        Issuer: C=CC, ST=State, L=Location, O=Organization, CN=rsa.mitls.org/emailAddress=root@mitls.org
        Validity
            Not Before: Oct 19 09:42:37 2016 GMT
            Not After : Jan  5 09:42:37 2025 GMT
        Subject: C=CC, ST=State, O=Organization, CN=rsa.cert.mitls.org/emailAddress=root@mitls.org
        Subject Public Key Info:
            Public Key Algorithm: rsaEncryption
            RSA Public Key: (1024 bit)
                Modulus (1024 bit):
                    00:d7:88:22:c9:cd:06:f9:1e:f7:2b:64:ea:7c:2d:
                    74:25:92:96:5a:90:db:0c:81:3c:96:ad:c9:92:98:
                    8a:54:5d:74:10:a0:2d:0a:15:bd:ec:f6:00:39:63:
                    76:a3:02:f4:fc:c3:b7:bb:47:ff:07:ef:18:f5:99:
                    0f:ab:d4:ad:45:b5:c2:62:31:3c:93:a2:d7:a7:41:
                    b7:ff:7d:9a:07:7d:db:89:13:66:1b:40:bb:04:35:
                    be:04:1c:04:f3:57:f6:c1:c3:24:67:81:23:85:27:
                    18:0e:5c:06:9a:ad:72:b6:86:d7:cd:c4:7c:a7:2e:
                    e4:8e:c1:d4:35:a2:0d:89:59
                Exponent: 65537 (0x10001)
        X509v3 extensions:
            X509v3 Key Usage: 
                Digital Signature, Non Repudiation, Key Encipherment
            X509v3 Basic Constraints: 
                CA:FALSE
            Netscape Comment: 
                OpenSSL Generated Certificate
    Signature Algorithm: sha1WithRSAEncryption
        9c:12:74:f8:aa:70:6e:4f:2d:4a:55:e0:63:26:03:7f:a9:fa:
        bf:eb:34:33:a0:5f:3c:91:d1:2d:9c:ee:92:0a:22:b1:d1:4b:
        18:fe:46:9e:44:d2:16:0e:54:e4:ce:ec:6b:5b:dc:06:39:aa:
        33:de:01:21:de:7b:5e:f8:f0:d0:4e:1f:45:70:9a:50:08:e2:
        56:fd:f8:d5:9a:f1:9d:b0:2c:23:3d:bb:f4:02:e2:d9:69:48:
        73:3a:7b:6d:5f:2a:33:38:b0:9d:ea:63:1f:73:a1:0c:9e:7d:
        5c:89:6c:2f:15:68:94:4a:5e:b9:34:c8:5e:1b:b9:25:3b:d9:
        7f:8b
-----BEGIN CERTIFICATE-----
MIICrDCCAhWgAwIBAgIBATANBgkqhkiG9w0BAQUFADB+MQswCQYDVQQGEwJDQzEO
MAwGA1UECAwFU3RhdGUxETAPBgNVBAcMCExvY2F0aW9uMRUwEwYDVQQKDAxPcmdh
bml6YXRpb24xFjAUBgNVBAMMDXJzYS5taXRscy5vcmcxHTAbBgkqhkiG9w0BCQEW
DnJvb3RAbWl0bHMub3JnMB4XDTE2MTAxOTA5NDIzN1oXDTI1MDEwNTA5NDIzN1ow
cDELMAkGA1UEBhMCQ0MxDjAMBgNVBAgMBVN0YXRlMRUwEwYDVQQKDAxPcmdhbml6
YXRpb24xGzAZBgNVBAMMEnJzYS5jZXJ0Lm1pdGxzLm9yZzEdMBsGCSqGSIb3DQEJ
ARYOcm9vdEBtaXRscy5vcmcwgZ8wDQYJKoZIhvcNAQEBBQADgY0AMIGJAoGBANeI
IsnNBvke9ytk6nwtdCWSllqQ2wyBPJatyZKYilRddBCgLQoVvez2ADljdqMC9PzD
t7tH/wfvGPWZD6vUrUW1wmIxPJOi16dBt/99mgd924kTZhtAuwQ1vgQcBPNX9sHD
JGeBI4UnGA5cBpqtcraG183EfKcu5I7B1DWiDYlZAgMBAAGjSDBGMAsGA1UdDwQE
AwIF4DAJBgNVHRMEAjAAMCwGCWCGSAGG+EIBDQQfFh1PcGVuU1NMIEdlbmVyYXRl
ZCBDZXJ0aWZpY2F0ZTANBgkqhkiG9w0BAQUFAAOBgQCcEnT4qnBuTy1KVeBjJgN/
qfq/6zQzoF88kdEtnO6SCiKx0UsY/kaeRNIWDlTkzuxrW9wGOaoz3gEh3nte+PDQ
Th9FcJpQCOJW/fjVmvGdsCwjPbv0AuLZaUhzOnttXyozOLCd6mMfc6EMnn1ciWwv
FWiUSl65NMheG7klO9l/iw==
-----END CERTIFICATE-----
