Certificate:
    Data:
        Version: 3 (0x2)
        Serial Number: 1 (0x1)
        Signature Algorithm: sha1WithRSAEncryption
        Issuer: C=CC, ST=State, L=Location, O=Organization, CN=rsa.mitls.org/emailAddress=root@mitls.org
        Validity
            Not Before: Jun  2 17:42:08 2016 GMT
            Not After : Aug 19 17:42:08 2024 GMT
        Subject: C=CC, ST=State, O=Organization, CN=rsa.cert.mitls.org/emailAddress=root@mitls.org
        Subject Public Key Info:
            Public Key Algorithm: rsaEncryption
            RSA Public Key: (1024 bit)
                Modulus (1024 bit):
                    00:a9:cf:35:04:01:b3:11:9d:7a:29:42:85:dc:17:
                    12:ee:af:50:d4:54:78:6c:ac:9e:ae:e6:f6:63:8c:
                    45:a8:c8:00:85:2b:5a:04:b2:84:85:ae:4a:d5:54:
                    8e:49:cb:a4:7a:6c:72:49:67:31:3b:27:72:b7:01:
                    aa:24:7b:92:65:6e:5b:b4:f6:c4:6a:2a:5e:5f:df:
                    90:2d:f2:f8:22:25:3e:0e:ad:93:9d:db:e1:ce:37:
                    21:06:40:f5:2a:67:28:48:ef:fa:8a:c5:e4:4b:b6:
                    fa:af:ea:9d:b9:d1:04:25:5e:e7:e2:5f:76:82:5b:
                    9e:1f:e0:34:c5:49:e2:77:47
                Exponent: 65537 (0x10001)
        X509v3 extensions:
            X509v3 Key Usage: 
                Digital Signature, Non Repudiation, Key Encipherment
            X509v3 Basic Constraints: 
                CA:FALSE
            Netscape Comment: 
                OpenSSL Generated Certificate
    Signature Algorithm: sha1WithRSAEncryption
        30:ae:18:4f:76:8b:86:3a:41:25:10:4b:88:1c:7f:03:a5:f2:
        9d:00:b9:e7:37:90:09:1a:86:97:22:88:e6:95:34:7c:e6:3b:
        fd:0b:33:5e:10:d6:99:e4:35:3f:15:9b:46:c7:64:c3:20:97:
        6a:17:e0:61:9c:48:fb:6b:1d:2b:79:d3:06:66:ee:25:21:a6:
        ec:88:67:09:6d:e2:77:34:45:ff:46:73:c4:70:1c:f3:42:65:
        69:4c:c3:a1:da:c6:59:42:57:b2:83:d3:a1:80:aa:b1:ac:eb:
        cb:61:d8:9b:cd:3b:07:b0:d7:c6:a3:d6:fc:e9:02:6b:61:e4:
        b6:e9
-----BEGIN CERTIFICATE-----
MIICrDCCAhWgAwIBAgIBATANBgkqhkiG9w0BAQUFADB+MQswCQYDVQQGEwJDQzEO
MAwGA1UECAwFU3RhdGUxETAPBgNVBAcMCExvY2F0aW9uMRUwEwYDVQQKDAxPcmdh
bml6YXRpb24xFjAUBgNVBAMMDXJzYS5taXRscy5vcmcxHTAbBgkqhkiG9w0BCQEW
DnJvb3RAbWl0bHMub3JnMB4XDTE2MDYwMjE3NDIwOFoXDTI0MDgxOTE3NDIwOFow
cDELMAkGA1UEBhMCQ0MxDjAMBgNVBAgMBVN0YXRlMRUwEwYDVQQKDAxPcmdhbml6
YXRpb24xGzAZBgNVBAMMEnJzYS5jZXJ0Lm1pdGxzLm9yZzEdMBsGCSqGSIb3DQEJ
ARYOcm9vdEBtaXRscy5vcmcwgZ8wDQYJKoZIhvcNAQEBBQADgY0AMIGJAoGBAKnP
NQQBsxGdeilChdwXEu6vUNRUeGysnq7m9mOMRajIAIUrWgSyhIWuStVUjknLpHps
cklnMTsncrcBqiR7kmVuW7T2xGoqXl/fkC3y+CIlPg6tk53b4c43IQZA9SpnKEjv
+orF5Eu2+q/qnbnRBCVe5+JfdoJbnh/gNMVJ4ndHAgMBAAGjSDBGMAsGA1UdDwQE
AwIF4DAJBgNVHRMEAjAAMCwGCWCGSAGG+EIBDQQfFh1PcGVuU1NMIEdlbmVyYXRl
ZCBDZXJ0aWZpY2F0ZTANBgkqhkiG9w0BAQUFAAOBgQAwrhhPdouGOkElEEuIHH8D
pfKdALnnN5AJGoaXIojmlTR85jv9CzNeENaZ5DU/FZtGx2TDIJdqF+BhnEj7ax0r
edMGZu4lIabsiGcJbeJ3NEX/RnPEcBzzQmVpTMOh2sZZQleyg9OhgKqxrOvLYdib
zTsHsNfGo9b86QJrYeS26Q==
-----END CERTIFICATE-----
